; Function Attrs: mustprogress uwtable
define internal fastcc noundef ptr @_ZL18udata_getHashTableR10UErrorCode(ptr noundef nonnull align 4 dereferenceable(4) %0) unnamed_addr #1 {
  %2 = load i32, ptr %0, align 4, !tbaa !13
  %3 = icmp slt i32 %2, 1
  br i1 %3, label %4, label %_ZN6icu_7713umtx_initOnceERNS_9UInitOnceEPFvR10UErrorCodeES3_.exit

4:                                                ; preds = %1
  %5 = load atomic i32, ptr @_ZL24gCommonDataCacheInitOnce acquire, align 4
  %.not11.i = icmp eq i32 %5, 2
  br i1 %.not11.i, label %15, label %6

6:                                                ; preds = %4
  %7 = tail call noundef signext i8 @_ZN6icu_7720umtx_initImplPreInitERNS_9UInitOnceE(ptr noundef nonnull align 4 dereferenceable(8) @_ZL24gCommonDataCacheInitOnce)
  %.not12.i = icmp eq i8 %7, 0
  br i1 %.not12.i, label %15, label %8

8:                                                ; preds = %6
  %9 = tail call ptr @uhash_open_77(ptr noundef nonnull @uhash_hashChars_77, ptr noundef nonnull @uhash_compareChars_77, ptr noundef null, ptr noundef nonnull align 4 dereferenceable(4) %0)
  store ptr %9, ptr @_ZL16gCommonDataCache, align 8, !tbaa !45
  %10 = load i32, ptr %0, align 4, !tbaa !13
  %11 = icmp slt i32 %10, 1
  br i1 %11, label %12, label %_ZL19udata_initHashTableR10UErrorCode.exit

12:                                               ; preds = %8
  %13 = tail call ptr @uhash_setValueDeleter_77(ptr noundef %9, ptr noundef nonnull @_ZL24DataCacheElement_deleterPv)
  tail call void @ucln_common_registerCleanup_77(i32 noundef 23, ptr noundef nonnull @_ZL13udata_cleanupv)
  %.pre = load i32, ptr %0, align 4, !tbaa !13
  br label %_ZL19udata_initHashTableR10UErrorCode.exit

_ZL19udata_initHashTableR10UErrorCode.exit:       ; preds = %8, %12
  %14 = phi i32 [ %10, %8 ], [ %.pre, %12 ]
  store i32 %14, ptr getelementptr inbounds nuw (i8, ptr @_ZL24gCommonDataCacheInitOnce, i64 4), align 4, !tbaa !48
  tail call void @_ZN6icu_7721umtx_initImplPostInitERNS_9UInitOnceE(ptr noundef nonnull align 4 dereferenceable(8) @_ZL24gCommonDataCacheInitOnce)
  br label %_ZN6icu_7713umtx_initOnceERNS_9UInitOnceEPFvR10UErrorCodeES3_.exit

15:                                               ; preds = %6, %4
  %16 = load i32, ptr getelementptr inbounds nuw (i8, ptr @_ZL24gCommonDataCacheInitOnce, i64 4), align 4, !tbaa !48
  %17 = icmp slt i32 %16, 1
  br i1 %17, label %_ZN6icu_7713umtx_initOnceERNS_9UInitOnceEPFvR10UErrorCodeES3_.exit, label %18

18:                                               ; preds = %15
  store i32 %16, ptr %0, align 4, !tbaa !13
  br label %_ZN6icu_7713umtx_initOnceERNS_9UInitOnceEPFvR10UErrorCodeES3_.exit

_ZN6icu_7713umtx_initOnceERNS_9UInitOnceEPFvR10UErrorCodeES3_.exit: ; preds = %1, %_ZL19udata_initHashTableR10UErrorCode.exit, %15, %18
  %19 = load ptr, ptr @_ZL16gCommonDataCache, align 8, !tbaa !45
  ret ptr %19
}